target datalayout = "e-m:e-p270:32:32-p271:32:32-p272:64:64-i64:64-i128:128-f80:128-n8:16:32:64-S128"
target triple = "x86_64-pc-linux-gnu"

%"class.gmx::AnalysisDataHandle" = type { ptr }
%"class.gmx::internal::AnalysisDataHandleImpl" = type { ptr, ptr }
%class.anon.75 = type { i8 }

@.str.2 = private unnamed_addr constant [135 x i8] c"generated/home/dtcxzyw/WorkSpace/Projects/compilers/llvm-opt-benchmark/bench/gromacs/gromacs/src/gromacs/analysisdata/analysisdata.cpp\00", align 1
@.str.9 = private unnamed_addr constant [17 x i8] c"impl_ != nullptr\00", align 1
@.str.10 = private unnamed_addr constant [25 x i8] c"Invalid data handle used\00", align 1
@"__PRETTY_FUNCTION__._ZZN3gmx18AnalysisDataHandle10finishDataEvENK3$_0clEv" = private unnamed_addr constant [82 x i8] c"auto gmx::AnalysisDataHandle::finishData()::(anonymous class)::operator()() const\00", align 1

; Function Attrs: inlinehint mustprogress uwtable
define internal void @"_ZZN3gmx18AnalysisDataHandle10finishDataEvENK3$_0clEv"(ptr noundef nonnull align 1 dereferenceable(1) %0) #4 align 2 {
  %2 = alloca ptr, align 8
  store ptr %0, ptr %2, align 8, !tbaa !78
  call void @_ZN3gmx8internal13assertHandlerEPKcS2_S2_S2_i(ptr noundef @.str.9, ptr noundef @.str.10, ptr noundef @"__PRETTY_FUNCTION__._ZZN3gmx18AnalysisDataHandle10finishDataEvENK3$_0clEv", ptr noundef @.str.2, i32 noundef 290) #17
  unreachable
}

; Function Attrs: mustprogress uwtable
define void @_ZN3gmx18AnalysisDataHandle10finishDataEv(ptr noundef nonnull align 8 dereferenceable(8) %0) #1 align 2 {
  %2 = alloca ptr, align 8
  %3 = alloca %class.anon.75, align 1
  %4 = alloca %"class.gmx::AnalysisDataHandle", align 8
  store ptr %0, ptr %2, align 8, !tbaa !115
  %5 = load ptr, ptr %2, align 8
  %6 = getelementptr inbounds nuw %"class.gmx::AnalysisDataHandle", ptr %5, i32 0, i32 0
  %7 = load ptr, ptr %6, align 8, !tbaa !111
  %8 = icmp ne ptr %7, null
  call void @llvm.lifetime.start.p0(i64 1, ptr %3) #13
  br i1 %8, label %9, label %10

9:                                                ; preds = %1
  br label %11

10:                                               ; preds = %1
  call void @"_ZZN3gmx18AnalysisDataHandle10finishDataEvENK3$_0clEv"(ptr noundef nonnull align 1 dereferenceable(1) %3)
  br label %11

11:                                               ; preds = %10, %9
  call void @llvm.lifetime.end.p0(i64 1, ptr %3) #13
  %12 = getelementptr inbounds nuw %"class.gmx::AnalysisDataHandle", ptr %5, i32 0, i32 0
  %13 = load ptr, ptr %12, align 8, !tbaa !111
  %14 = getelementptr inbounds nuw %"class.gmx::internal::AnalysisDataHandleImpl", ptr %13, i32 0, i32 0
  %15 = load ptr, ptr %14, align 8, !tbaa !119
  call void @llvm.memcpy.p0.p0.i64(ptr align 8 %4, ptr align 8 %5, i64 8, i1 false), !tbaa.struct !100
  %16 = getelementptr inbounds nuw %"class.gmx::AnalysisDataHandle", ptr %4, i32 0, i32 0
  %17 = load ptr, ptr %16, align 8
  call void @_ZN3gmx12AnalysisData10finishDataENS_18AnalysisDataHandleE(ptr noundef nonnull align 8 dereferenceable(24) %15, ptr %17)
  %18 = getelementptr inbounds nuw %"class.gmx::AnalysisDataHandle", ptr %5, i32 0, i32 0
  store ptr null, ptr %18, align 8, !tbaa !111
  ret void
}