; Function Attrs: mustprogress uwtable
define void @_ZN3gmx18AnalysisDataHandle10finishDataEv(ptr noundef nonnull align 8 captures(none) dereferenceable(8) %0) local_unnamed_addr #1 align 2 {
  %2 = load ptr, ptr %0, align 8, !tbaa !37
  %.not = icmp eq ptr %2, null
  br i1 %.not, label %3, label %4

3:                                                ; preds = %1
  tail call void @_ZN3gmx8internal13assertHandlerEPKcS2_S2_S2_i(ptr noundef nonnull @.str.9, ptr noundef nonnull @.str.10, ptr noundef nonnull @"__PRETTY_FUNCTION__._ZZN3gmx18AnalysisDataHandle10finishDataEvENK3$_0clEv", ptr noundef nonnull @.str.2, i32 noundef 290) #15
  unreachable

4:                                                ; preds = %1
  %5 = load ptr, ptr %2, align 8, !tbaa !39
  tail call void @_ZN3gmx12AnalysisData10finishDataENS_18AnalysisDataHandleE(ptr noundef nonnull align 8 dereferenceable(24) %5, ptr nonnull %2)
  store ptr null, ptr %0, align 8, !tbaa !37
  ret void
}